target datalayout = "e-m:e-p270:32:32-p271:32:32-p272:64:64-i64:64-i128:128-f80:128-n8:16:32:64-S128"
target triple = "x86_64-pc-linux-gnu"

%struct.slurm_step_id_msg = type { i64, i32, i32, i32 }
%struct.reattach_tasks_request_msg = type { ptr, i16, ptr, i16, ptr, %struct.slurm_step_id_msg }

@.str.2 = private unnamed_addr constant [22 x i8] c"slurm_protocol_pack.c\00", align 1
@__func__._unpack_reattach_tasks_request_msg = private unnamed_addr constant [35 x i8] c"_unpack_reattach_tasks_request_msg\00", align 1

; Function Attrs: nounwind uwtable
define internal i32 @_unpack_reattach_tasks_request_msg(ptr noundef %0, ptr noundef %1, i16 noundef zeroext %2) #0 {
  %4 = alloca i32, align 4
  %5 = alloca ptr, align 8
  %6 = alloca ptr, align 8
  %7 = alloca i16, align 2
  %8 = alloca ptr, align 8
  %9 = alloca i32, align 4
  %10 = alloca i32, align 4
  %11 = alloca i32, align 4
  %12 = alloca i64, align 8
  %13 = alloca i64, align 8
  %14 = alloca i64, align 8
  %15 = alloca i64, align 8
  store ptr %0, ptr %5, align 8
  store ptr %1, ptr %6, align 8
  store i16 %2, ptr %7, align 2
  call void @llvm.lifetime.start.p0(i64 8, ptr %8) #6
  call void @llvm.lifetime.start.p0(i64 4, ptr %9) #6
  %16 = call ptr @slurm_xcalloc(i64 noundef 1, i64 noundef 64, i1 noundef zeroext true, i1 noundef zeroext false, ptr noundef @.str.2, i32 noundef 7141, ptr noundef @__func__._unpack_reattach_tasks_request_msg)
  store ptr %16, ptr %8, align 8
  %17 = load ptr, ptr %8, align 8
  %18 = load ptr, ptr %5, align 8
  store ptr %17, ptr %18, align 8
  %19 = load i16, ptr %7, align 2
  %20 = zext i16 %19 to i32
  %21 = icmp sge i32 %20, 10240
  br i1 %21, label %22, label %200

22:                                               ; preds = %3
  %23 = load ptr, ptr %8, align 8
  %24 = getelementptr inbounds nuw %struct.reattach_tasks_request_msg, ptr %23, i32 0, i32 5
  %25 = load ptr, ptr %6, align 8
  %26 = load i16, ptr %7, align 2
  %27 = call i32 @unpack_step_id_members(ptr noundef %24, ptr noundef %25, i16 noundef zeroext %26)
  %28 = icmp ne i32 %27, 0
  br i1 %28, label %29, label %30

29:                                               ; preds = %22
  br label %201

30:                                               ; preds = %22
  br label %31

31:                                               ; preds = %30
  call void @llvm.lifetime.start.p0(i64 4, ptr %10) #6
  %32 = load ptr, ptr %8, align 8
  %33 = getelementptr inbounds nuw %struct.reattach_tasks_request_msg, ptr %32, i32 0, i32 0
  %34 = load ptr, ptr %6, align 8
  %35 = call i32 @unpackstr_xmalloc_chooser(ptr noundef %33, ptr noundef %10, ptr noundef %34)
  %36 = icmp ne i32 %35, 0
  br i1 %36, label %37, label %38

37:                                               ; preds = %31
  store i32 2, ptr %11, align 4
  br label %39

38:                                               ; preds = %31
  store i32 0, ptr %11, align 4
  br label %39

39:                                               ; preds = %37, %38
  call void @llvm.lifetime.end.p0(i64 4, ptr %10) #6
  %40 = load i32, ptr %11, align 4
  switch i32 %40, label %204 [
    i32 0, label %41
    i32 2, label %201
  ]

41:                                               ; preds = %39
  br label %42

42:                                               ; preds = %41
  br label %43

43:                                               ; preds = %42
  br label %44

44:                                               ; preds = %43
  %45 = load ptr, ptr %8, align 8
  %46 = getelementptr inbounds nuw %struct.reattach_tasks_request_msg, ptr %45, i32 0, i32 1
  %47 = load ptr, ptr %6, align 8
  %48 = call i32 @unpack16(ptr noundef %46, ptr noundef %47)
  %49 = icmp ne i32 %48, 0
  br i1 %49, label %50, label %51

50:                                               ; preds = %44
  br label %201

51:                                               ; preds = %44
  br label %52

52:                                               ; preds = %51
  br label %53

53:                                               ; preds = %52
  %54 = load ptr, ptr %8, align 8
  %55 = getelementptr inbounds nuw %struct.reattach_tasks_request_msg, ptr %54, i32 0, i32 1
  %56 = load i16, ptr %55, align 8
  %57 = zext i16 %56 to i32
  %58 = icmp sge i32 %57, 65534
  br i1 %58, label %59, label %60

59:                                               ; preds = %53
  br label %201

60:                                               ; preds = %53
  %61 = load ptr, ptr %8, align 8
  %62 = getelementptr inbounds nuw %struct.reattach_tasks_request_msg, ptr %61, i32 0, i32 1
  %63 = load i16, ptr %62, align 8
  %64 = zext i16 %63 to i32
  %65 = icmp sgt i32 %64, 0
  br i1 %65, label %66, label %121

66:                                               ; preds = %60
  br label %67

67:                                               ; preds = %66
  call void @llvm.lifetime.start.p0(i64 8, ptr %12) #6
  %68 = load ptr, ptr %8, align 8
  %69 = getelementptr inbounds nuw %struct.reattach_tasks_request_msg, ptr %68, i32 0, i32 1
  %70 = load i16, ptr %69, align 8
  %71 = zext i16 %70 to i64
  store i64 %71, ptr %12, align 8
  call void @llvm.lifetime.start.p0(i64 8, ptr %13) #6
  store i64 2, ptr %13, align 8
  %72 = load i64, ptr %12, align 8
  %73 = icmp ne i64 %72, 0
  br i1 %73, label %74, label %77

74:                                               ; preds = %67
  %75 = load i64, ptr %13, align 8
  %76 = icmp ne i64 %75, 0
  br i1 %76, label %80, label %77

77:                                               ; preds = %74, %67
  %78 = load ptr, ptr %8, align 8
  %79 = getelementptr inbounds nuw %struct.reattach_tasks_request_msg, ptr %78, i32 0, i32 2
  store ptr null, ptr %79, align 8
  br label %89

80:                                               ; preds = %74
  %81 = load i64, ptr %12, align 8
  %82 = load i64, ptr %13, align 8
  %83 = call ptr @slurm_xcalloc(i64 noundef %81, i64 noundef %82, i1 noundef zeroext true, i1 noundef zeroext true, ptr noundef @.str.2, i32 noundef 7154, ptr noundef @__func__._unpack_reattach_tasks_request_msg)
  %84 = load ptr, ptr %8, align 8
  %85 = getelementptr inbounds nuw %struct.reattach_tasks_request_msg, ptr %84, i32 0, i32 2
  store ptr %83, ptr %85, align 8
  %86 = icmp ne ptr %83, null
  br i1 %86, label %88, label %87

87:                                               ; preds = %80
  store i32 2, ptr %11, align 4
  br label %90

88:                                               ; preds = %80
  br label %89

89:                                               ; preds = %88, %77
  store i32 0, ptr %11, align 4
  br label %90

90:                                               ; preds = %87, %89
  call void @llvm.lifetime.end.p0(i64 8, ptr %13) #6
  call void @llvm.lifetime.end.p0(i64 8, ptr %12) #6
  %91 = load i32, ptr %11, align 4
  switch i32 %91, label %204 [
    i32 0, label %92
    i32 2, label %201
  ]

92:                                               ; preds = %90
  br label %93

93:                                               ; preds = %92
  br label %94

94:                                               ; preds = %93
  store i32 0, ptr %9, align 4
  br label %95

95:                                               ; preds = %117, %94
  %96 = load i32, ptr %9, align 4
  %97 = load ptr, ptr %8, align 8
  %98 = getelementptr inbounds nuw %struct.reattach_tasks_request_msg, ptr %97, i32 0, i32 1
  %99 = load i16, ptr %98, align 8
  %100 = zext i16 %99 to i32
  %101 = icmp slt i32 %96, %100
  br i1 %101, label %102, label %120

102:                                              ; preds = %95
  br label %103

103:                                              ; preds = %102
  %104 = load ptr, ptr %8, align 8
  %105 = getelementptr inbounds nuw %struct.reattach_tasks_request_msg, ptr %104, i32 0, i32 2
  %106 = load ptr, ptr %105, align 8
  %107 = load i32, ptr %9, align 4
  %108 = sext i32 %107 to i64
  %109 = getelementptr inbounds i16, ptr %106, i64 %108
  %110 = load ptr, ptr %6, align 8
  %111 = call i32 @unpack16(ptr noundef %109, ptr noundef %110)
  %112 = icmp ne i32 %111, 0
  br i1 %112, label %113, label %114

113:                                              ; preds = %103
  br label %201

114:                                              ; preds = %103
  br label %115

115:                                              ; preds = %114
  br label %116

116:                                              ; preds = %115
  br label %117

117:                                              ; preds = %116
  %118 = load i32, ptr %9, align 4
  %119 = add nsw i32 %118, 1
  store i32 %119, ptr %9, align 4
  br label %95, !llvm.loop !90

120:                                              ; preds = %95
  br label %121

121:                                              ; preds = %120, %60
  br label %122

122:                                              ; preds = %121
  %123 = load ptr, ptr %8, align 8
  %124 = getelementptr inbounds nuw %struct.reattach_tasks_request_msg, ptr %123, i32 0, i32 3
  %125 = load ptr, ptr %6, align 8
  %126 = call i32 @unpack16(ptr noundef %124, ptr noundef %125)
  %127 = icmp ne i32 %126, 0
  br i1 %127, label %128, label %129

128:                                              ; preds = %122
  br label %201

129:                                              ; preds = %122
  br label %130

130:                                              ; preds = %129
  br label %131

131:                                              ; preds = %130
  %132 = load ptr, ptr %8, align 8
  %133 = getelementptr inbounds nuw %struct.reattach_tasks_request_msg, ptr %132, i32 0, i32 3
  %134 = load i16, ptr %133, align 8
  %135 = zext i16 %134 to i32
  %136 = icmp sge i32 %135, 65534
  br i1 %136, label %137, label %138

137:                                              ; preds = %131
  br label %201

138:                                              ; preds = %131
  %139 = load ptr, ptr %8, align 8
  %140 = getelementptr inbounds nuw %struct.reattach_tasks_request_msg, ptr %139, i32 0, i32 3
  %141 = load i16, ptr %140, align 8
  %142 = zext i16 %141 to i32
  %143 = icmp sgt i32 %142, 0
  br i1 %143, label %144, label %199

144:                                              ; preds = %138
  br label %145

145:                                              ; preds = %144
  call void @llvm.lifetime.start.p0(i64 8, ptr %14) #6
  %146 = load ptr, ptr %8, align 8
  %147 = getelementptr inbounds nuw %struct.reattach_tasks_request_msg, ptr %146, i32 0, i32 3
  %148 = load i16, ptr %147, align 8
  %149 = zext i16 %148 to i64
  store i64 %149, ptr %14, align 8
  call void @llvm.lifetime.start.p0(i64 8, ptr %15) #6
  store i64 2, ptr %15, align 8
  %150 = load i64, ptr %14, align 8
  %151 = icmp ne i64 %150, 0
  br i1 %151, label %152, label %155

152:                                              ; preds = %145
  %153 = load i64, ptr %15, align 8
  %154 = icmp ne i64 %153, 0
  br i1 %154, label %158, label %155

155:                                              ; preds = %152, %145
  %156 = load ptr, ptr %8, align 8
  %157 = getelementptr inbounds nuw %struct.reattach_tasks_request_msg, ptr %156, i32 0, i32 4
  store ptr null, ptr %157, align 8
  br label %167

158:                                              ; preds = %152
  %159 = load i64, ptr %14, align 8
  %160 = load i64, ptr %15, align 8
  %161 = call ptr @slurm_xcalloc(i64 noundef %159, i64 noundef %160, i1 noundef zeroext true, i1 noundef zeroext true, ptr noundef @.str.2, i32 noundef 7163, ptr noundef @__func__._unpack_reattach_tasks_request_msg)
  %162 = load ptr, ptr %8, align 8
  %163 = getelementptr inbounds nuw %struct.reattach_tasks_request_msg, ptr %162, i32 0, i32 4
  store ptr %161, ptr %163, align 8
  %164 = icmp ne ptr %161, null
  br i1 %164, label %166, label %165

165:                                              ; preds = %158
  store i32 2, ptr %11, align 4
  br label %168

166:                                              ; preds = %158
  br label %167

167:                                              ; preds = %166, %155
  store i32 0, ptr %11, align 4
  br label %168

168:                                              ; preds = %165, %167
  call void @llvm.lifetime.end.p0(i64 8, ptr %15) #6
  call void @llvm.lifetime.end.p0(i64 8, ptr %14) #6
  %169 = load i32, ptr %11, align 4
  switch i32 %169, label %204 [
    i32 0, label %170
    i32 2, label %201
  ]

170:                                              ; preds = %168
  br label %171

171:                                              ; preds = %170
  br label %172

172:                                              ; preds = %171
  store i32 0, ptr %9, align 4
  br label %173

173:                                              ; preds = %195, %172
  %174 = load i32, ptr %9, align 4
  %175 = load ptr, ptr %8, align 8
  %176 = getelementptr inbounds nuw %struct.reattach_tasks_request_msg, ptr %175, i32 0, i32 3
  %177 = load i16, ptr %176, align 8
  %178 = zext i16 %177 to i32
  %179 = icmp slt i32 %174, %178
  br i1 %179, label %180, label %198

180:                                              ; preds = %173
  br label %181

181:                                              ; preds = %180
  %182 = load ptr, ptr %8, align 8
  %183 = getelementptr inbounds nuw %struct.reattach_tasks_request_msg, ptr %182, i32 0, i32 4
  %184 = load ptr, ptr %183, align 8
  %185 = load i32, ptr %9, align 4
  %186 = sext i32 %185 to i64
  %187 = getelementptr inbounds i16, ptr %184, i64 %186
  %188 = load ptr, ptr %6, align 8
  %189 = call i32 @unpack16(ptr noundef %187, ptr noundef %188)
  %190 = icmp ne i32 %189, 0
  br i1 %190, label %191, label %192

191:                                              ; preds = %181
  br label %201

192:                                              ; preds = %181
  br label %193

193:                                              ; preds = %192
  br label %194

194:                                              ; preds = %193
  br label %195

195:                                              ; preds = %194
  %196 = load i32, ptr %9, align 4
  %197 = add nsw i32 %196, 1
  store i32 %197, ptr %9, align 4
  br label %173, !llvm.loop !91

198:                                              ; preds = %173
  br label %199

199:                                              ; preds = %198, %138
  br label %200

200:                                              ; preds = %199, %3
  store i32 0, ptr %4, align 4
  store i32 1, ptr %11, align 4
  br label %204

201:                                              ; preds = %168, %90, %39, %191, %137, %128, %113, %59, %50, %29
  %202 = load ptr, ptr %8, align 8
  call void @slurm_free_reattach_tasks_request_msg(ptr noundef %202)
  %203 = load ptr, ptr %5, align 8
  store ptr null, ptr %203, align 8
  store i32 -1, ptr %4, align 4
  store i32 1, ptr %11, align 4
  br label %204

204:                                              ; preds = %201, %200, %168, %90, %39
  call void @llvm.lifetime.end.p0(i64 4, ptr %9) #6
  call void @llvm.lifetime.end.p0(i64 8, ptr %8) #6
  %205 = load i32, ptr %4, align 4
  ret i32 %205
}