; Function Attrs: nounwind uwtable
define internal fastcc range(i32 -1, 1) i32 @_unpack_reattach_tasks_request_msg(ptr noundef writeonly captures(none) initializes((0, 8)) %0, ptr noundef %1, i16 noundef zeroext %2) unnamed_addr #0 {
  %4 = alloca i32, align 4
  %5 = tail call ptr @slurm_xcalloc(i64 noundef 1, i64 noundef 64, i1 noundef zeroext true, i1 noundef zeroext false, ptr noundef nonnull @.str.2, i32 noundef 7141, ptr noundef nonnull @__func__._unpack_reattach_tasks_request_msg) #7
  store ptr %5, ptr %0, align 8
  %6 = icmp ugt i16 %2, 10239
  br i1 %6, label %7, label %.loopexit

7:                                                ; preds = %3
  %8 = getelementptr inbounds nuw i8, ptr %5, i64 40
  %9 = tail call i32 @unpack_step_id_members(ptr noundef nonnull %8, ptr noundef %1, i16 noundef zeroext %2)
  %.not = icmp eq i32 %9, 0
  br i1 %.not, label %10, label %.loopexit68

10:                                               ; preds = %7
  call void @llvm.lifetime.start.p0(i64 4, ptr nonnull %4) #7
  %11 = call i32 @unpackstr_xmalloc_chooser(ptr noundef nonnull %5, ptr noundef nonnull %4, ptr noundef %1) #7
  %.not57 = icmp eq i32 %11, 0
  call void @llvm.lifetime.end.p0(i64 4, ptr nonnull %4) #7
  br i1 %.not57, label %12, label %.loopexit68

12:                                               ; preds = %10
  %13 = getelementptr inbounds nuw i8, ptr %5, i64 8
  %14 = call i32 @unpack16(ptr noundef nonnull %13, ptr noundef %1) #7
  %.not58 = icmp eq i32 %14, 0
  br i1 %.not58, label %15, label %.loopexit68

15:                                               ; preds = %12
  %16 = load i16, ptr %13, align 8
  %17 = icmp ugt i16 %16, -3
  br i1 %17, label %.loopexit68, label %18

18:                                               ; preds = %15
  %.not59 = icmp eq i16 %16, 0
  br i1 %.not59, label %.loopexit70, label %19

19:                                               ; preds = %18
  %20 = zext i16 %16 to i64
  %21 = call ptr @slurm_xcalloc(i64 noundef %20, i64 noundef 2, i1 noundef zeroext true, i1 noundef zeroext true, ptr noundef nonnull @.str.2, i32 noundef 7154, ptr noundef nonnull @__func__._unpack_reattach_tasks_request_msg) #7
  %22 = getelementptr inbounds nuw i8, ptr %5, i64 16
  store ptr %21, ptr %22, align 8
  %.not60 = icmp eq ptr %21, null
  br i1 %.not60, label %.loopexit68, label %.preheader69

.preheader69:                                     ; preds = %19
  %23 = load i16, ptr %13, align 8
  %.not75 = icmp eq i16 %23, 0
  br i1 %.not75, label %.loopexit70, label %.lr.ph

24:                                               ; preds = %.lr.ph
  %indvars.iv.next = add nuw nsw i64 %indvars.iv, 1
  %25 = load i16, ptr %13, align 8
  %26 = zext i16 %25 to i64
  %27 = icmp samesign ult i64 %indvars.iv.next, %26
  br i1 %27, label %.lr.ph, label %.loopexit70, !llvm.loop !92

.lr.ph:                                           ; preds = %.preheader69, %24
  %indvars.iv = phi i64 [ %indvars.iv.next, %24 ], [ 0, %.preheader69 ]
  %28 = load ptr, ptr %22, align 8
  %29 = getelementptr inbounds nuw i16, ptr %28, i64 %indvars.iv
  %30 = call i32 @unpack16(ptr noundef %29, ptr noundef %1) #7
  %.not65 = icmp eq i32 %30, 0
  br i1 %.not65, label %24, label %.loopexit68

.loopexit70:                                      ; preds = %24, %.preheader69, %18
  %31 = getelementptr inbounds nuw i8, ptr %5, i64 24
  %32 = call i32 @unpack16(ptr noundef nonnull %31, ptr noundef %1) #7
  %.not61 = icmp eq i32 %32, 0
  br i1 %.not61, label %33, label %.loopexit68

33:                                               ; preds = %.loopexit70
  %34 = load i16, ptr %31, align 8
  %35 = icmp ugt i16 %34, -3
  br i1 %35, label %.loopexit68, label %36

36:                                               ; preds = %33
  %.not62 = icmp eq i16 %34, 0
  br i1 %.not62, label %.loopexit, label %37

37:                                               ; preds = %36
  %38 = zext i16 %34 to i64
  %39 = call ptr @slurm_xcalloc(i64 noundef %38, i64 noundef 2, i1 noundef zeroext true, i1 noundef zeroext true, ptr noundef nonnull @.str.2, i32 noundef 7163, ptr noundef nonnull @__func__._unpack_reattach_tasks_request_msg) #7
  %40 = getelementptr inbounds nuw i8, ptr %5, i64 32
  store ptr %39, ptr %40, align 8
  %.not63 = icmp eq ptr %39, null
  br i1 %.not63, label %.loopexit68, label %.preheader

.preheader:                                       ; preds = %37
  %41 = load i16, ptr %31, align 8
  %.not76 = icmp eq i16 %41, 0
  br i1 %.not76, label %.loopexit, label %.lr.ph74

42:                                               ; preds = %.lr.ph74
  %indvars.iv.next80 = add nuw nsw i64 %indvars.iv79, 1
  %43 = load i16, ptr %31, align 8
  %44 = zext i16 %43 to i64
  %45 = icmp samesign ult i64 %indvars.iv.next80, %44
  br i1 %45, label %.lr.ph74, label %.loopexit, !llvm.loop !93

.lr.ph74:                                         ; preds = %.preheader, %42
  %indvars.iv79 = phi i64 [ %indvars.iv.next80, %42 ], [ 0, %.preheader ]
  %46 = load ptr, ptr %40, align 8
  %47 = getelementptr inbounds nuw i16, ptr %46, i64 %indvars.iv79
  %48 = call i32 @unpack16(ptr noundef %47, ptr noundef %1) #7
  %.not64 = icmp eq i32 %48, 0
  br i1 %.not64, label %42, label %.loopexit68

.loopexit68:                                      ; preds = %.lr.ph, %.lr.ph74, %37, %19, %10, %33, %.loopexit70, %15, %12, %7
  call void @slurm_free_reattach_tasks_request_msg(ptr noundef nonnull %5) #7
  store ptr null, ptr %0, align 8
  br label %.loopexit

.loopexit:                                        ; preds = %42, %.preheader, %3, %36, %.loopexit68
  %.0 = phi i32 [ -1, %.loopexit68 ], [ 0, %36 ], [ 0, %3 ], [ 0, %.preheader ], [ 0, %42 ]
  ret i32 %.0
}